(dp1
I0
Vagent.acquaintance
p2
sI1
Vagent.age
p3
sI2
Vagent.annoying
p4
sI3
Vagent.answer_my_question
p5
sI4
Vagent.bad
p6
sI5
Vagent.be_clever
p7
sI6
Vagent.beautiful
p8
sI7
Vagent.birth_date
p9
sI8
Vagent.boring
p10
sI9
Vagent.boss
p11
sI10
Vagent.busy
p12
sI11
Vagent.can_you_help
p13
sI12
Vagent.chatbot
p14
sI13
Vagent.clever
p15
sI14
Vagent.crazy
p16
sI15
Vagent.fired
p17
sI16
Vagent.funny
p18
sI17
Vagent.good
p19
sI18
Vagent.happy
p20
sI19
Vagent.hobby
p21
sI20
Vagent.hungry
p22
sI21
Vagent.marry_user
p23
sI22
Vagent.my_friend
p24
sI23
Vagent.occupation
p25
sI24
Vagent.origin
p26
sI25
Vagent.ready
p27
sI26
Vagent.real
p28
sI27
Vagent.residence
p29
sI28
Vagent.right
p30
sI29
Vagent.sure
p31
sI30
Vagent.talk_to_me
p32
sI31
Vagent.there
p33
sI32
Vagent.what_can_do
p34
sI33
Vappraisal.bad
p35
sI34
Vappraisal.good
p36
sI35
Vappraisal.no_problem
p37
sI36
Vappraisal.thank_you
p38
sI37
Vappraisal.welcome
p39
sI38
Vappraisal.well_done
p40
sI39
Vconfirmation.cancel
p41
sI40
Vconfirmation.no
p42
sI41
Vconfirmation.yes
p43
sI42
Vdialog.hold_on
p44
sI43
Vdialog.hug
p45
sI44
Vdialog.i_do_not_care
p46
sI45
Vdialog.sorry
p47
sI46
Vdialog.what_do_you_mean
p48
sI47
Vdialog.wrong
p49
sI48
Vemotions.ha_ha
p50
sI49
Vemotions.wow
p51
sI50
Vgreetings.bye
p52
sI51
Vgreetings.goodevening
p53
sI52
Vgreetings.goodmorning
p54
sI53
Vgreetings.goodnight
p55
sI54
Vgreetings.hello
p56
sI55
Vgreetings.how_are_you
p57
sI56
Vgreetings.nice_to_meet_you
p58
sI57
Vgreetings.nice_to_see_you
p59
sI58
Vgreetings.nice_to_talk_to_you
p60
sI59
Vgreetings.whatsup
p61
sI60
Vuser.angry
p62
sI61
Vuser.back
p63
sI62
Vuser.bored
p64
sI63
Vuser.busy
p65
sI64
Vuser.can_not_sleep
p66
sI65
Vuser.does_not_want_to_talk
p67
sI66
Vuser.excited
p68
sI67
Vuser.going_to_bed
p69
sI68
Vuser.good
p70
sI69
Vuser.happy
p71
sI70
Vuser.has_birthday
p72
sI71
Vuser.here
p73
sI72
Vuser.joking
p74
sI73
Vuser.likes_agent
p75
sI74
Vuser.lonely
p76
sI75
Vuser.looks_like
p77
sI76
Vuser.loves_agent
p78
sI77
Vuser.misses_agent
p79
sI78
Vuser.needs_advice
p80
sI79
Vuser.sad
p81
sI80
Vuser.sleepy
p82
sI81
Vuser.testing_agent
p83
sI82
Vuser.tired
p84
sI83
Vuser.waits
p85
sI84
Vuser.wants_to_see_agent_again
p86
sI85
Vuser.wants_to_talk
p87
sI86
Vuser.will_be_back
p88
s.